; Function Attrs: mustprogress nofree norecurse nosync nounwind willreturn memory(argmem: read) uwtable
define noundef range(i32 0, -2147483648) i32 @_ZNK6icu_776number4impl15DecimalQuantity13fractionCountEv(ptr noundef nonnull readonly align 8 captures(none) dereferenceable(66) %0) local_unnamed_addr #16 align 2 {
  %2 = getelementptr inbounds nuw i8, ptr %0, i64 12
  %3 = load i32, ptr %2, align 4, !tbaa !27
  %4 = getelementptr inbounds nuw i8, ptr %0, i64 40
  %5 = load i32, ptr %4, align 8, !tbaa !34
  %..i = tail call noundef i32 @llvm.smin.i32(i32 %5, i32 %3)
  %6 = getelementptr inbounds nuw i8, ptr %0, i64 44
  %7 = load i32, ptr %6, align 4, !tbaa !32
  %8 = add i32 %..i, %7
  %9 = sub i32 0, %8
  %10 = tail call i32 @llvm.smax.i32(i32 %9, i32 0)
  ret i32 %10
}